; Function Attrs: mustprogress nounwind uwtable
define dso_local noundef i32 @_ZN4llvm3X8617getCondFromCFCMovERKNS_12MachineInstrE(ptr noundef nonnull readonly align 8 captures(none) dereferenceable(70) %0) local_unnamed_addr #1 {
  %2 = getelementptr inbounds nuw i8, ptr %0, i64 68
  %3 = load i16, ptr %2, align 4
  %4 = zext i16 %3 to i32
  %5 = tail call noundef zeroext i1 @_ZN4llvm3X8610isCFCMOVCCEj(i32 noundef %4) #29
  br i1 %5, label %6, label %_ZN4llvm3X8613getCondFromMIERKNS_12MachineInstrE.exit

6:                                                ; preds = %1
  %7 = getelementptr inbounds nuw i8, ptr %0, i64 16
  %8 = load ptr, ptr %7, align 8
  %9 = tail call noundef i32 @_ZN4llvm3X8620getCondSrcNoFromDescERKNS_11MCInstrDescE(ptr noundef nonnull align 8 dereferenceable(32) %8)
  %10 = icmp slt i32 %9, 0
  br i1 %10, label %_ZN4llvm3X8613getCondFromMIERKNS_12MachineInstrE.exit, label %11

11:                                               ; preds = %6
  %12 = getelementptr inbounds nuw i8, ptr %8, i64 4
  %13 = load i8, ptr %12, align 4
  %14 = zext i8 %13 to i32
  %15 = add nuw nsw i32 %9, %14
  %16 = getelementptr inbounds nuw i8, ptr %0, i64 32
  %17 = load ptr, ptr %16, align 8
  %18 = zext nneg i32 %15 to i64
  %19 = getelementptr inbounds nuw %"class.llvm::MachineOperand", ptr %17, i64 %18, i32 3
  %20 = load i64, ptr %19, align 8
  %21 = trunc i64 %20 to i32
  br label %_ZN4llvm3X8613getCondFromMIERKNS_12MachineInstrE.exit

_ZN4llvm3X8613getCondFromMIERKNS_12MachineInstrE.exit: ; preds = %11, %6, %1
  %22 = phi i32 [ 18, %1 ], [ %21, %11 ], [ 18, %6 ]
  ret i32 %22
}